target datalayout = "e-m:e-p270:32:32-p271:32:32-p272:64:64-i64:64-i128:128-f80:128-n8:16:32:64-S128"
target triple = "x86_64-pc-linux-gnu"

%struct.TypeName = type { i32, ptr, i32, i8, i8, ptr, i32, ptr, i32 }
%struct.FormData_pg_type = type { i32, %struct.nameData, i32, i32, i16, i8, i8, i8, i8, i8, i8, i32, i32, i32, i32, i32, i32, i32, i32, i32, i32, i32, i8, i8, i8, i32, i32, i32, i32 }
%struct.nameData = type { [64 x i8] }
%struct.HeapTupleData = type { i32, %struct.ItemPointerData, i32, ptr }
%struct.ItemPointerData = type { %struct.BlockIdData, i16 }
%struct.BlockIdData = type { i16, i16 }
%struct.HeapTupleHeaderData = type { %union.anon, %struct.ItemPointerData, i16, i16, i8, [0 x i8] }
%union.anon = type { %struct.HeapTupleFields }
%struct.HeapTupleFields = type { i32, i32, %union.anon.0 }
%union.anon.0 = type { i32 }

@.str.1 = private unnamed_addr constant [13 x i8] c"parse_type.c\00", align 1
@.str.6 = private unnamed_addr constant [25 x i8] c"type \22%s\22 does not exist\00", align 1
@__func__.LookupTypeNameOid = private unnamed_addr constant [18 x i8] c"LookupTypeNameOid\00", align 1

; Function Attrs: inlinehint nounwind uwtable
define internal ptr @GETSTRUCT(ptr noundef %0) #3 {
  %2 = alloca ptr, align 8
  store ptr %0, ptr %2, align 8
  %3 = load ptr, ptr %2, align 8
  %4 = getelementptr inbounds nuw %struct.HeapTupleData, ptr %3, i32 0, i32 3
  %5 = load ptr, ptr %4, align 8
  %6 = load ptr, ptr %2, align 8
  %7 = getelementptr inbounds nuw %struct.HeapTupleData, ptr %6, i32 0, i32 3
  %8 = load ptr, ptr %7, align 8
  %9 = getelementptr inbounds nuw %struct.HeapTupleHeaderData, ptr %8, i32 0, i32 4
  %10 = load i8, ptr %9, align 2
  %11 = zext i8 %10 to i32
  %12 = sext i32 %11 to i64
  %13 = getelementptr inbounds i8, ptr %5, i64 %12
  ret ptr %13
}

; Function Attrs: nounwind uwtable
define dso_local ptr @LookupTypeName(ptr noundef %0, ptr noundef %1, ptr noundef %2, i1 noundef zeroext %3) #0 {
  %5 = alloca ptr, align 8
  %6 = alloca ptr, align 8
  %7 = alloca ptr, align 8
  %8 = alloca i8, align 1
  store ptr %0, ptr %5, align 8
  store ptr %1, ptr %6, align 8
  store ptr %2, ptr %7, align 8
  %9 = zext i1 %3 to i8
  store i8 %9, ptr %8, align 1
  %10 = load ptr, ptr %5, align 8
  %11 = load ptr, ptr %6, align 8
  %12 = load ptr, ptr %7, align 8
  %13 = load i8, ptr %8, align 1, !range !4, !noundef !5
  %14 = trunc i8 %13 to i1
  %15 = call ptr @LookupTypeNameExtended(ptr noundef %10, ptr noundef %11, ptr noundef %12, i1 noundef zeroext true, i1 noundef zeroext %14)
  ret ptr %15
}

; Function Attrs: nounwind uwtable
define dso_local i32 @LookupTypeNameOid(ptr noundef %0, ptr noundef %1, i1 noundef zeroext %2) #0 {
  %4 = alloca i32, align 4
  %5 = alloca ptr, align 8
  %6 = alloca ptr, align 8
  %7 = alloca i8, align 1
  %8 = alloca i32, align 4
  %9 = alloca ptr, align 8
  %10 = alloca i32, align 4
  store ptr %0, ptr %5, align 8
  store ptr %1, ptr %6, align 8
  %11 = zext i1 %2 to i8
  store i8 %11, ptr %7, align 1
  call void @llvm.lifetime.start.p0(i64 4, ptr %8) #7
  call void @llvm.lifetime.start.p0(i64 8, ptr %9) #7
  %12 = load ptr, ptr %5, align 8
  %13 = load ptr, ptr %6, align 8
  %14 = load i8, ptr %7, align 1, !range !4, !noundef !5
  %15 = trunc i8 %14 to i1
  %16 = call ptr @LookupTypeName(ptr noundef %12, ptr noundef %13, ptr noundef null, i1 noundef zeroext %15)
  store ptr %16, ptr %9, align 8
  %17 = load ptr, ptr %9, align 8
  %18 = icmp eq ptr %17, null
  br i1 %18, label %19, label %42

19:                                               ; preds = %3
  %20 = load i8, ptr %7, align 1, !range !4, !noundef !5
  %21 = trunc i8 %20 to i1
  br i1 %21, label %41, label %22

22:                                               ; preds = %19
  br label %23

23:                                               ; preds = %22
  br i1 true, label %24, label %26

24:                                               ; preds = %23
  %25 = call zeroext i1 @errstart_cold(i32 noundef 21, ptr noundef null) #8
  br i1 %25, label %28, label %38

26:                                               ; preds = %23
  %27 = call zeroext i1 @errstart(i32 noundef 21, ptr noundef null)
  br i1 %27, label %28, label %38

28:                                               ; preds = %26, %24
  %29 = call i32 @errcode(i32 noundef 67137668)
  %30 = load ptr, ptr %6, align 8
  %31 = call ptr @TypeNameToString(ptr noundef %30)
  %32 = call i32 (ptr, ...) @errmsg(ptr noundef @.str.6, ptr noundef %31)
  %33 = load ptr, ptr %5, align 8
  %34 = load ptr, ptr %6, align 8
  %35 = getelementptr inbounds nuw %struct.TypeName, ptr %34, i32 0, i32 8
  %36 = load i32, ptr %35, align 8
  %37 = call i32 @parser_errposition(ptr noundef %33, i32 noundef %36)
  call void @errfinish(ptr noundef @.str.1, i32 noundef 245, ptr noundef @__func__.LookupTypeNameOid)
  br label %38

38:                                               ; preds = %28, %26, %24
  unreachable

39:                                               ; No predecessors!
  br label %40

40:                                               ; preds = %39
  br label %41

41:                                               ; preds = %40, %19
  store i32 0, ptr %4, align 4
  store i32 1, ptr %10, align 4
  br label %49

42:                                               ; preds = %3
  %43 = load ptr, ptr %9, align 8
  %44 = call ptr @GETSTRUCT(ptr noundef %43)
  %45 = getelementptr inbounds nuw %struct.FormData_pg_type, ptr %44, i32 0, i32 0
  %46 = load i32, ptr %45, align 4
  store i32 %46, ptr %8, align 4
  %47 = load ptr, ptr %9, align 8
  call void @ReleaseSysCache(ptr noundef %47)
  %48 = load i32, ptr %8, align 4
  store i32 %48, ptr %4, align 4
  store i32 1, ptr %10, align 4
  br label %49

49:                                               ; preds = %42, %41
  call void @llvm.lifetime.end.p0(i64 8, ptr %9) #7
  call void @llvm.lifetime.end.p0(i64 4, ptr %8) #7
  %50 = load i32, ptr %4, align 4
  ret i32 %50
}