; Function Attrs: nounwind uwtable
define dso_local i32 @LookupTypeNameOid(ptr noundef %0, ptr noundef readonly captures(none) %1, i1 noundef zeroext %2) local_unnamed_addr #0 {
  %4 = tail call ptr @LookupTypeNameExtended(ptr noundef %0, ptr noundef readonly %1, ptr noundef null, i1 noundef zeroext true, i1 noundef zeroext %2)
  %5 = icmp eq ptr %4, null
  br i1 %5, label %6, label %15

6:                                                ; preds = %3
  br i1 %2, label %22, label %7

7:                                                ; preds = %6
  %8 = tail call zeroext i1 @errstart_cold(i32 noundef 21, ptr noundef null) #8
  tail call void @llvm.assume(i1 %8)
  %9 = tail call i32 @errcode(i32 noundef 67137668) #7
  %10 = tail call ptr @TypeNameToString(ptr noundef %1)
  %11 = tail call i32 (ptr, ...) @errmsg(ptr noundef nonnull @.str.6, ptr noundef %10) #7
  %12 = getelementptr inbounds nuw i8, ptr %1, i64 48
  %13 = load i32, ptr %12, align 8
  %14 = tail call i32 @parser_errposition(ptr noundef %0, i32 noundef %13) #7
  tail call void @errfinish(ptr noundef nonnull @.str.1, i32 noundef 245, ptr noundef nonnull @__func__.LookupTypeNameOid) #7
  unreachable

15:                                               ; preds = %3
  %16 = getelementptr i8, ptr %4, i64 16
  %.val = load ptr, ptr %16, align 8
  %17 = getelementptr inbounds nuw i8, ptr %.val, i64 22
  %18 = load i8, ptr %17, align 2
  %19 = zext i8 %18 to i64
  %20 = getelementptr inbounds nuw i8, ptr %.val, i64 %19
  %21 = load i32, ptr %20, align 4
  tail call void @ReleaseSysCache(ptr noundef nonnull %4) #7
  br label %22

22:                                               ; preds = %6, %15
  %.0 = phi i32 [ %21, %15 ], [ 0, %6 ]
  ret i32 %.0
}